target datalayout = "e-m:e-p270:32:32-p271:32:32-p272:64:64-i64:64-i128:128-f80:128-n8:16:32:64-S128"
target triple = "x86_64-pc-linux-gnu"

%struct.AVChannelLayout = type { i32, i32, %union.anon, ptr }
%union.anon = type { i64 }
%struct.AVChannelCustom = type { i32, [16 x i8], ptr }

; Function Attrs: alwaysinline nounwind willreturn memory(none) uwtable
define internal i32 @av_popcount_c(i32 noundef %0) #5 {
  %2 = alloca i32, align 4
  store i32 %0, ptr %2, align 4, !tbaa !9
  %3 = load i32, ptr %2, align 4, !tbaa !9
  %4 = lshr i32 %3, 1
  %5 = and i32 %4, 1431655765
  %6 = load i32, ptr %2, align 4, !tbaa !9
  %7 = sub i32 %6, %5
  store i32 %7, ptr %2, align 4, !tbaa !9
  %8 = load i32, ptr %2, align 4, !tbaa !9
  %9 = and i32 %8, 858993459
  %10 = load i32, ptr %2, align 4, !tbaa !9
  %11 = lshr i32 %10, 2
  %12 = and i32 %11, 858993459
  %13 = add i32 %9, %12
  store i32 %13, ptr %2, align 4, !tbaa !9
  %14 = load i32, ptr %2, align 4, !tbaa !9
  %15 = load i32, ptr %2, align 4, !tbaa !9
  %16 = lshr i32 %15, 4
  %17 = add i32 %14, %16
  %18 = and i32 %17, 252645135
  store i32 %18, ptr %2, align 4, !tbaa !9
  %19 = load i32, ptr %2, align 4, !tbaa !9
  %20 = lshr i32 %19, 8
  %21 = load i32, ptr %2, align 4, !tbaa !9
  %22 = add i32 %21, %20
  store i32 %22, ptr %2, align 4, !tbaa !9
  %23 = load i32, ptr %2, align 4, !tbaa !9
  %24 = load i32, ptr %2, align 4, !tbaa !9
  %25 = lshr i32 %24, 16
  %26 = add i32 %23, %25
  %27 = and i32 %26, 63
  ret i32 %27
}

; Function Attrs: alwaysinline nounwind willreturn memory(none) uwtable
define internal i32 @av_popcount64_c(i64 noundef %0) #5 {
  %2 = alloca i64, align 8
  store i64 %0, ptr %2, align 8, !tbaa !15
  %3 = load i64, ptr %2, align 8, !tbaa !15
  %4 = trunc i64 %3 to i32
  %5 = call i32 @av_popcount_c(i32 noundef %4) #13
  %6 = load i64, ptr %2, align 8, !tbaa !15
  %7 = lshr i64 %6, 32
  %8 = trunc i64 %7 to i32
  %9 = call i32 @av_popcount_c(i32 noundef %8) #13
  %10 = add nsw i32 %5, %9
  ret i32 %10
}

; Function Attrs: nounwind uwtable
define i32 @av_channel_layout_check(ptr noundef %0) #0 {
  %2 = alloca i32, align 4
  %3 = alloca ptr, align 8
  %4 = alloca i32, align 4
  %5 = alloca i32, align 4
  store ptr %0, ptr %3, align 8, !tbaa !23
  %6 = load ptr, ptr %3, align 8, !tbaa !23
  %7 = getelementptr inbounds nuw %struct.AVChannelLayout, ptr %6, i32 0, i32 1
  %8 = load i32, ptr %7, align 4, !tbaa !32
  %9 = icmp sle i32 %8, 0
  br i1 %9, label %10, label %11

10:                                               ; preds = %1
  store i32 0, ptr %2, align 4
  br label %69

11:                                               ; preds = %1
  %12 = load ptr, ptr %3, align 8, !tbaa !23
  %13 = getelementptr inbounds nuw %struct.AVChannelLayout, ptr %12, i32 0, i32 0
  %14 = load i32, ptr %13, align 8, !tbaa !30
  switch i32 %14, label %68 [
    i32 1, label %15
    i32 2, label %25
    i32 3, label %57
    i32 0, label %67
  ]

15:                                               ; preds = %11
  %16 = load ptr, ptr %3, align 8, !tbaa !23
  %17 = getelementptr inbounds nuw %struct.AVChannelLayout, ptr %16, i32 0, i32 2
  %18 = load i64, ptr %17, align 8, !tbaa !22
  %19 = call i32 @av_popcount64_c(i64 noundef %18) #13
  %20 = load ptr, ptr %3, align 8, !tbaa !23
  %21 = getelementptr inbounds nuw %struct.AVChannelLayout, ptr %20, i32 0, i32 1
  %22 = load i32, ptr %21, align 4, !tbaa !32
  %23 = icmp eq i32 %19, %22
  %24 = zext i1 %23 to i32
  store i32 %24, ptr %2, align 4
  br label %69

25:                                               ; preds = %11
  %26 = load ptr, ptr %3, align 8, !tbaa !23
  %27 = getelementptr inbounds nuw %struct.AVChannelLayout, ptr %26, i32 0, i32 2
  %28 = load ptr, ptr %27, align 8, !tbaa !22
  %29 = icmp ne ptr %28, null
  br i1 %29, label %31, label %30

30:                                               ; preds = %25
  store i32 0, ptr %2, align 4
  br label %69

31:                                               ; preds = %25
  call void @llvm.lifetime.start.p0(i64 4, ptr %4) #11
  store i32 0, ptr %4, align 4, !tbaa !9
  br label %32

32:                                               ; preds = %51, %31
  %33 = load i32, ptr %4, align 4, !tbaa !9
  %34 = load ptr, ptr %3, align 8, !tbaa !23
  %35 = getelementptr inbounds nuw %struct.AVChannelLayout, ptr %34, i32 0, i32 1
  %36 = load i32, ptr %35, align 4, !tbaa !32
  %37 = icmp slt i32 %33, %36
  br i1 %37, label %39, label %38

38:                                               ; preds = %32
  store i32 3, ptr %5, align 4
  br label %54

39:                                               ; preds = %32
  %40 = load ptr, ptr %3, align 8, !tbaa !23
  %41 = getelementptr inbounds nuw %struct.AVChannelLayout, ptr %40, i32 0, i32 2
  %42 = load ptr, ptr %41, align 8, !tbaa !22
  %43 = load i32, ptr %4, align 4, !tbaa !9
  %44 = sext i32 %43 to i64
  %45 = getelementptr inbounds %struct.AVChannelCustom, ptr %42, i64 %44
  %46 = getelementptr inbounds nuw %struct.AVChannelCustom, ptr %45, i32 0, i32 0
  %47 = load i32, ptr %46, align 8, !tbaa !27
  %48 = icmp eq i32 %47, -1
  br i1 %48, label %49, label %50

49:                                               ; preds = %39
  store i32 0, ptr %2, align 4
  store i32 1, ptr %5, align 4
  br label %54

50:                                               ; preds = %39
  br label %51

51:                                               ; preds = %50
  %52 = load i32, ptr %4, align 4, !tbaa !9
  %53 = add nsw i32 %52, 1
  store i32 %53, ptr %4, align 4, !tbaa !9
  br label %32, !llvm.loop !52

54:                                               ; preds = %49, %38
  call void @llvm.lifetime.end.p0(i64 4, ptr %4) #11
  %55 = load i32, ptr %5, align 4
  switch i32 %55, label %71 [
    i32 3, label %56
    i32 1, label %69
  ]

56:                                               ; preds = %54
  store i32 1, ptr %2, align 4
  br label %69

57:                                               ; preds = %11
  %58 = load ptr, ptr %3, align 8, !tbaa !23
  %59 = getelementptr inbounds nuw %struct.AVChannelLayout, ptr %58, i32 0, i32 2
  %60 = load i64, ptr %59, align 8, !tbaa !22
  %61 = call i32 @av_popcount64_c(i64 noundef %60) #13
  %62 = load ptr, ptr %3, align 8, !tbaa !23
  %63 = getelementptr inbounds nuw %struct.AVChannelLayout, ptr %62, i32 0, i32 1
  %64 = load i32, ptr %63, align 4, !tbaa !32
  %65 = icmp slt i32 %61, %64
  %66 = zext i1 %65 to i32
  store i32 %66, ptr %2, align 4
  br label %69

67:                                               ; preds = %11
  store i32 1, ptr %2, align 4
  br label %69

68:                                               ; preds = %11
  store i32 0, ptr %2, align 4
  br label %69

69:                                               ; preds = %68, %67, %57, %56, %54, %30, %15, %10
  %70 = load i32, ptr %2, align 4
  ret i32 %70

71:                                               ; preds = %54
  unreachable
}