; Function Attrs: nofree norecurse nosync nounwind memory(read, inaccessiblemem: none) uwtable
define range(i32 0, 2) i32 @av_channel_layout_check(ptr noundef readonly captures(none) %0) local_unnamed_addr #9 {
  %2 = getelementptr inbounds nuw i8, ptr %0, i64 4
  %3 = load i32, ptr %2, align 4, !tbaa !20
  %4 = icmp slt i32 %3, 1
  br i1 %4, label %.loopexit, label %5

5:                                                ; preds = %1
  %6 = load i32, ptr %0, align 8, !tbaa !18
  switch i32 %6, label %88 [
    i32 1, label %7
    i32 2, label %45
    i32 3, label %50
    i32 0, label %.loopexit
  ]

7:                                                ; preds = %5
  %8 = getelementptr inbounds nuw i8, ptr %0, i64 8
  %9 = load i64, ptr %8, align 8, !tbaa !17
  %10 = trunc i64 %9 to i32
  %11 = lshr i32 %10, 1
  %12 = and i32 %11, 1431655765
  %13 = sub i32 %10, %12
  %14 = and i32 %13, 858993459
  %15 = lshr i32 %13, 2
  %16 = and i32 %15, 858993459
  %17 = add nuw nsw i32 %16, %14
  %18 = lshr i32 %17, 4
  %19 = add nuw nsw i32 %18, %17
  %20 = and i32 %19, 252645135
  %21 = lshr i32 %20, 8
  %22 = add nuw nsw i32 %21, %20
  %23 = lshr i32 %22, 16
  %24 = add nuw nsw i32 %23, %22
  %25 = and i32 %24, 63
  %26 = lshr i64 %9, 32
  %27 = trunc nuw i64 %26 to i32
  %28 = lshr i32 %27, 1
  %29 = and i32 %28, 1431655765
  %30 = sub i32 %27, %29
  %31 = and i32 %30, 858993459
  %32 = lshr i32 %30, 2
  %33 = and i32 %32, 858993459
  %34 = add nuw nsw i32 %33, %31
  %35 = lshr i32 %34, 4
  %36 = add nuw nsw i32 %35, %34
  %37 = and i32 %36, 252645135
  %38 = lshr i32 %37, 8
  %39 = add nuw nsw i32 %38, %37
  %40 = lshr i32 %39, 16
  %41 = add nuw nsw i32 %40, %39
  %42 = and i32 %41, 63
  %43 = add nuw nsw i32 %42, %25
  %44 = icmp eq i32 %43, %3
  br label %.loopexit

45:                                               ; preds = %5
  %46 = getelementptr inbounds nuw i8, ptr %0, i64 8
  %47 = load ptr, ptr %46, align 8, !tbaa !17
  %.not = icmp eq ptr %47, null
  br i1 %.not, label %.loopexit, label %.lr.ph.preheader

.lr.ph.preheader:                                 ; preds = %45
  %wide.trip.count = zext nneg i32 %3 to i64
  br label %.lr.ph

.lr.ph:                                           ; preds = %.lr.ph, %.lr.ph.preheader
  %indvars.iv = phi i64 [ 0, %.lr.ph.preheader ], [ %indvars.iv.next, %.lr.ph ]
  %48 = getelementptr inbounds nuw %struct.AVChannelCustom, ptr %47, i64 %indvars.iv
  %49 = load i32, ptr %48, align 8, !tbaa !21
  %.not21 = icmp ne i32 %49, -1
  %indvars.iv.next = add nuw nsw i64 %indvars.iv, 1
  %exitcond.not = icmp ne i64 %indvars.iv.next, %wide.trip.count
  %or.cond.not = select i1 %.not21, i1 %exitcond.not, i1 false
  br i1 %or.cond.not, label %.lr.ph, label %.loopexit, !llvm.loop !45

50:                                               ; preds = %5
  %51 = getelementptr inbounds nuw i8, ptr %0, i64 8
  %52 = load i64, ptr %51, align 8, !tbaa !17
  %53 = trunc i64 %52 to i32
  %54 = lshr i32 %53, 1
  %55 = and i32 %54, 1431655765
  %56 = sub i32 %53, %55
  %57 = and i32 %56, 858993459
  %58 = lshr i32 %56, 2
  %59 = and i32 %58, 858993459
  %60 = add nuw nsw i32 %59, %57
  %61 = lshr i32 %60, 4
  %62 = add nuw nsw i32 %61, %60
  %63 = and i32 %62, 252645135
  %64 = lshr i32 %63, 8
  %65 = add nuw nsw i32 %64, %63
  %66 = lshr i32 %65, 16
  %67 = add nuw nsw i32 %66, %65
  %68 = and i32 %67, 63
  %69 = lshr i64 %52, 32
  %70 = trunc nuw i64 %69 to i32
  %71 = lshr i32 %70, 1
  %72 = and i32 %71, 1431655765
  %73 = sub i32 %70, %72
  %74 = and i32 %73, 858993459
  %75 = lshr i32 %73, 2
  %76 = and i32 %75, 858993459
  %77 = add nuw nsw i32 %76, %74
  %78 = lshr i32 %77, 4
  %79 = add nuw nsw i32 %78, %77
  %80 = and i32 %79, 252645135
  %81 = lshr i32 %80, 8
  %82 = add nuw nsw i32 %81, %80
  %83 = lshr i32 %82, 16
  %84 = add nuw nsw i32 %83, %82
  %85 = and i32 %84, 63
  %86 = add nuw nsw i32 %85, %68
  %87 = icmp samesign ult i32 %86, %3
  br label %.loopexit

88:                                               ; preds = %5
  br label %.loopexit

.loopexit:                                        ; preds = %.lr.ph, %5, %45, %1, %88, %50, %7
  %.014.shrunk = phi i1 [ false, %88 ], [ %87, %50 ], [ %44, %7 ], [ false, %1 ], [ false, %45 ], [ true, %5 ], [ %.not21, %.lr.ph ]
  %.014 = zext i1 %.014.shrunk to i32
  ret i32 %.014
}